
mmult.o:     file format elf32-bigmips


Disassembly of section .text:

00000000 <main>:

    for (i = 0; i < 5; i++) {
        for (j = 0; j < 5; j++) {
            sum = 0;
            for (k = 0; k < 5 ; k++) {
                sum = sum + a[i][k] * b[k][j];
   0:	3c0a0000 	lui	t2,0x0
   4:	25430000 	addiu	v1,t2,0
   8:	8c650018 	lw	a1,24(v1)
   c:	8c64001c 	lw	a0,28(v1)
  10:	8c6c0024 	lw	t4,36(v1)
        }
    }
    
    for (x = 0; x < 5; x++){
        for (y = 0; y < 5; y++) {
            main_result += (output[x][y] != c[x][y]);
  14:	3c0d0000 	lui	t5,0x0

    for (i = 0; i < 5; i++) {
        for (j = 0; j < 5; j++) {
            sum = 0;
            for (k = 0; k < 5 ; k++) {
                sum = sum + a[i][k] * b[k][j];
  18:	8c680014 	lw	t0,20(v1)
        }
    }
    
    for (x = 0; x < 5; x++){
        for (y = 0; y < 5; y++) {
            main_result += (output[x][y] != c[x][y]);
  1c:	25a20000 	addiu	v0,t5,0
                            {51, 25, 51, 26, 52},
                            {71, 35, 71, 36, 72},
                            {91, 45, 91, 46, 92}};

int main()
{
  20:	27bdff70 	addiu	sp,sp,-144

    for (i = 0; i < 5; i++) {
        for (j = 0; j < 5; j++) {
            sum = 0;
            for (k = 0; k < 5 ; k++) {
                sum = sum + a[i][k] * b[k][j];
  24:	00a84021 	addu	t0,a1,t0
                            {51, 25, 51, 26, 52},
                            {71, 35, 71, 36, 72},
                            {91, 45, 91, 46, 92}};

int main()
{
  28:	afbe008c 	sw	s8,140(sp)

    for (i = 0; i < 5; i++) {
        for (j = 0; j < 5; j++) {
            sum = 0;
            for (k = 0; k < 5 ; k++) {
                sum = sum + a[i][k] * b[k][j];
  2c:	01844821 	addu	t1,t4,a0
        }
    }
    
    for (x = 0; x < 5; x++){
        for (y = 0; y < 5; y++) {
            main_result += (output[x][y] != c[x][y]);
  30:	8c5e0018 	lw	s8,24(v0)
  34:	8c590014 	lw	t9,20(v0)

    for (i = 0; i < 5; i++) {
        for (j = 0; j < 5; j++) {
            sum = 0;
            for (k = 0; k < 5 ; k++) {
                sum = sum + a[i][k] * b[k][j];
  38:	8c6e0020 	lw	t6,32(v1)
  3c:	0085c021 	addu	t8,a0,a1
  40:	01284821 	addu	t1,t1,t0
        }
    }
    
    for (x = 0; x < 5; x++){
        for (y = 0; y < 5; y++) {
            main_result += (output[x][y] != c[x][y]);
  44:	8c4f001c 	lw	t7,28(v0)

    for (i = 0; i < 5; i++) {
        for (j = 0; j < 5; j++) {
            sum = 0;
            for (k = 0; k < 5 ; k++) {
                sum = sum + a[i][k] * b[k][j];
  48:	8c64002c 	lw	a0,44(v1)
  4c:	8c6b0038 	lw	t3,56(v1)
  50:	8c660030 	lw	a2,48(v1)
  54:	8c670028 	lw	a3,40(v1)
        }
    }
    
    for (x = 0; x < 5; x++){
        for (y = 0; y < 5; y++) {
            main_result += (output[x][y] != c[x][y]);
  58:	03d8f026 	xor	s8,s8,t8
  5c:	0329c826 	xor	t9,t9,t1
  60:	8c580020 	lw	t8,32(v0)

    for (i = 0; i < 5; i++) {
        for (j = 0; j < 5; j++) {
            sum = 0;
            for (k = 0; k < 5 ; k++) {
                sum = sum + a[i][k] * b[k][j];
  64:	01c52821 	addu	a1,t6,a1
  68:	01cc6021 	addu	t4,t6,t4
        }
    }
    
    for (x = 0; x < 5; x++){
        for (y = 0; y < 5; y++) {
            main_result += (output[x][y] != c[x][y]);
  6c:	0019c82b 	sltu	t9,zero,t9
  70:	01e94826 	xor	t1,t7,t1
  74:	001ef02b 	sltu	s8,zero,s8
  78:	8c4f0024 	lw	t7,36(v0)

    for (i = 0; i < 5; i++) {
        for (j = 0; j < 5; j++) {
            sum = 0;
            for (k = 0; k < 5 ; k++) {
                sum = sum + a[i][k] * b[k][j];
  7c:	00873821 	addu	a3,a0,a3
  80:	01886021 	addu	t4,t4,t0
        }
    }
    
    for (x = 0; x < 5; x++){
        for (y = 0; y < 5; y++) {
            main_result += (output[x][y] != c[x][y]);
  84:	03d9f021 	addu	s8,s8,t9

    for (i = 0; i < 5; i++) {
        for (j = 0; j < 5; j++) {
            sum = 0;
            for (k = 0; k < 5 ; k++) {
                sum = sum + a[i][k] * b[k][j];
  88:	01664021 	addu	t0,t3,a2
        }
    }
    
    for (x = 0; x < 5; x++){
        for (y = 0; y < 5; y++) {
            main_result += (output[x][y] != c[x][y]);
  8c:	0009482b 	sltu	t1,zero,t1
  90:	03052826 	xor	a1,t8,a1
  94:	8c590028 	lw	t9,40(v0)

    for (i = 0; i < 5; i++) {
        for (j = 0; j < 5; j++) {
            sum = 0;
            for (k = 0; k < 5 ; k++) {
                sum = sum + a[i][k] * b[k][j];
  98:	01074021 	addu	t0,t0,a3
                            {51, 25, 51, 26, 52},
                            {71, 35, 71, 36, 72},
                            {91, 45, 91, 46, 92}};

int main()
{
  9c:	afb10070 	sw	s1,112(sp)
        }
    }
    
    for (x = 0; x < 5; x++){
        for (y = 0; y < 5; y++) {
            main_result += (output[x][y] != c[x][y]);
  a0:	03c9f021 	addu	s8,s8,t1
  a4:	0005282b 	sltu	a1,zero,a1
  a8:	01ec6026 	xor	t4,t7,t4
  ac:	8c51002c 	lw	s1,44(v0)
                            {51, 25, 51, 26, 52},
                            {71, 35, 71, 36, 72},
                            {91, 45, 91, 46, 92}};

int main()
{
  b0:	afb4007c 	sw	s4,124(sp)

    for (i = 0; i < 5; i++) {
        for (j = 0; j < 5; j++) {
            sum = 0;
            for (k = 0; k < 5 ; k++) {
                sum = sum + a[i][k] * b[k][j];
  b4:	8c780034 	lw	t8,52(v1)
  b8:	00c43021 	addu	a2,a2,a0
        }
    }
    
    for (x = 0; x < 5; x++){
        for (y = 0; y < 5; y++) {
            main_result += (output[x][y] != c[x][y]);
  bc:	03c5f021 	addu	s8,s8,a1
  c0:	000c602b 	sltu	t4,zero,t4
  c4:	0328c826 	xor	t9,t9,t0
  c8:	8c540030 	lw	s4,48(v0)

    for (i = 0; i < 5; i++) {
        for (j = 0; j < 5; j++) {
            sum = 0;
            for (k = 0; k < 5 ; k++) {
                sum = sum + a[i][k] * b[k][j];
  cc:	8c650040 	lw	a1,64(v1)
  d0:	8c6e004c 	lw	t6,76(v1)
                            {51, 25, 51, 26, 52},
                            {71, 35, 71, 36, 72},
                            {91, 45, 91, 46, 92}};

int main()
{
  d4:	afb0006c 	sw	s0,108(sp)

    for (i = 0; i < 5; i++) {
        for (j = 0; j < 5; j++) {
            sum = 0;
            for (k = 0; k < 5 ; k++) {
                sum = sum + a[i][k] * b[k][j];
  d8:	8c69003c 	lw	t1,60(v1)
  dc:	8c700044 	lw	s0,68(v1)
        }
    }
    
    for (x = 0; x < 5; x++){
        for (y = 0; y < 5; y++) {
            main_result += (output[x][y] != c[x][y]);
  e0:	03ccf021 	addu	s8,s8,t4
  e4:	0019c82b 	sltu	t9,zero,t9
  e8:	8c4c0034 	lw	t4,52(v0)
  ec:	02268826 	xor	s1,s1,a2
                            {51, 25, 51, 26, 52},
                            {71, 35, 71, 36, 72},
                            {91, 45, 91, 46, 92}};

int main()
{
  f0:	afb70088 	sw	s7,136(sp)
  f4:	afb60084 	sw	s6,132(sp)

    for (i = 0; i < 5; i++) {
        for (j = 0; j < 5; j++) {
            sum = 0;
            for (k = 0; k < 5 ; k++) {
                sum = sum + a[i][k] * b[k][j];
  f8:	0304b821 	addu	s7,t8,a0
        }
    }
    
    for (x = 0; x < 5; x++){
        for (y = 0; y < 5; y++) {
            main_result += (output[x][y] != c[x][y]);
  fc:	03d9f021 	addu	s8,s8,t9

    for (i = 0; i < 5; i++) {
        for (j = 0; j < 5; j++) {
            sum = 0;
            for (k = 0; k < 5 ; k++) {
                sum = sum + a[i][k] * b[k][j];
 100:	030bc021 	addu	t8,t8,t3
        }
    }
    
    for (x = 0; x < 5; x++){
        for (y = 0; y < 5; y++) {
            main_result += (output[x][y] != c[x][y]);
 104:	0011882b 	sltu	s1,zero,s1
 108:	0288a026 	xor	s4,s4,t0
 10c:	8c560038 	lw	s6,56(v0)

    for (i = 0; i < 5; i++) {
        for (j = 0; j < 5; j++) {
            sum = 0;
            for (k = 0; k < 5 ; k++) {
                sum = sum + a[i][k] * b[k][j];
 110:	00a94821 	addu	t1,a1,t1
                            {51, 25, 51, 26, 52},
                            {71, 35, 71, 36, 72},
                            {91, 45, 91, 46, 92}};

int main()
{
 114:	afb50080 	sw	s5,128(sp)

    for (i = 0; i < 5; i++) {
        for (j = 0; j < 5; j++) {
            sum = 0;
            for (k = 0; k < 5 ; k++) {
                sum = sum + a[i][k] * b[k][j];
 118:	0307c021 	addu	t8,t8,a3
 11c:	01d05821 	addu	t3,t6,s0
        }
    }
    
    for (x = 0; x < 5; x++){
        for (y = 0; y < 5; y++) {
            main_result += (output[x][y] != c[x][y]);
 120:	03d1f021 	addu	s8,s8,s1
 124:	0014a02b 	sltu	s4,zero,s4
 128:	0197b826 	xor	s7,t4,s7
 12c:	8c55003c 	lw	s5,60(v0)

    for (i = 0; i < 5; i++) {
        for (j = 0; j < 5; j++) {
            sum = 0;
            for (k = 0; k < 5 ; k++) {
                sum = sum + a[i][k] * b[k][j];
 130:	01695821 	addu	t3,t3,t1
        }
    }
    
    for (x = 0; x < 5; x++){
        for (y = 0; y < 5; y++) {
            main_result += (output[x][y] != c[x][y]);
 134:	03d4f021 	addu	s8,s8,s4
 138:	02d8b026 	xor	s6,s6,t8
 13c:	0017b82b 	sltu	s7,zero,s7
 140:	03d7b821 	addu	s7,s8,s7
 144:	02aba826 	xor	s5,s5,t3
 148:	0016b02b 	sltu	s6,zero,s6

    for (i = 0; i < 5; i++) {
        for (j = 0; j < 5; j++) {
            sum = 0;
            for (k = 0; k < 5 ; k++) {
                sum = sum + a[i][k] * b[k][j];
 14c:	8c640054 	lw	a0,84(v1)
 150:	8c660004 	lw	a2,4(v1)
                            {51, 25, 51, 26, 52},
                            {71, 35, 71, 36, 72},
                            {91, 45, 91, 46, 92}};

int main()
{
 154:	afb20074 	sw	s2,116(sp)

    for (i = 0; i < 5; i++) {
        for (j = 0; j < 5; j++) {
            sum = 0;
            for (k = 0; k < 5 ; k++) {
                sum = sum + a[i][k] * b[k][j];
 158:	8c6f0010 	lw	t7,16(v1)
 15c:	8c720008 	lw	s2,8(v1)
 160:	8c790058 	lw	t9,88(v1)
 164:	8c680060 	lw	t0,96(v1)
        }
    }
    
    for (x = 0; x < 5; x++){
        for (y = 0; y < 5; y++) {
            main_result += (output[x][y] != c[x][y]);
 168:	02f6b021 	addu	s6,s7,s6

    for (i = 0; i < 5; i++) {
        for (j = 0; j < 5; j++) {
            sum = 0;
            for (k = 0; k < 5 ; k++) {
                sum = sum + a[i][k] * b[k][j];
 16c:	8d4a0000 	lw	t2,0(t2)
        }
    }
    
    for (x = 0; x < 5; x++){
        for (y = 0; y < 5; y++) {
            main_result += (output[x][y] != c[x][y]);
 170:	0015a82b 	sltu	s5,zero,s5

    for (i = 0; i < 5; i++) {
        for (j = 0; j < 5; j++) {
            sum = 0;
            for (k = 0; k < 5 ; k++) {
                sum = sum + a[i][k] * b[k][j];
 174:	8c78000c 	lw	t8,12(v1)
        }
    }
    
    for (x = 0; x < 5; x++){
        for (y = 0; y < 5; y++) {
            main_result += (output[x][y] != c[x][y]);
 178:	02d5a821 	addu	s5,s6,s5

    for (i = 0; i < 5; i++) {
        for (j = 0; j < 5; j++) {
            sum = 0;
            for (k = 0; k < 5 ; k++) {
                sum = sum + a[i][k] * b[k][j];
 17c:	8c670050 	lw	a3,80(v1)
        }
    }
    
    for (x = 0; x < 5; x++){
        for (y = 0; y < 5; y++) {
            main_result += (output[x][y] != c[x][y]);
 180:	8c560054 	lw	s6,84(v0)
 184:	8db10000 	lw	s1,0(t5)

    for (i = 0; i < 5; i++) {
        for (j = 0; j < 5; j++) {
            sum = 0;
            for (k = 0; k < 5 ; k++) {
                sum = sum + a[i][k] * b[k][j];
 188:	8c6d0048 	lw	t5,72(v1)
                            {51, 25, 51, 26, 52},
                            {71, 35, 71, 36, 72},
                            {91, 45, 91, 46, 92}};

int main()
{
 18c:	afb30078 	sw	s3,120(sp)

    for (i = 0; i < 5; i++) {
        for (j = 0; j < 5; j++) {
            sum = 0;
            for (k = 0; k < 5 ; k++) {
                sum = sum + a[i][k] * b[k][j];
 190:	00ca5021 	addu	t2,a2,t2
 194:	01f26021 	addu	t4,t7,s2
 198:	0119a021 	addu	s4,t0,t9
 19c:	8c63005c 	lw	v1,92(v1)
        }
    }
    
    for (x = 0; x < 5; x++){
        for (y = 0; y < 5; y++) {
            main_result += (output[x][y] != c[x][y]);
 1a0:	8c530004 	lw	s3,4(v0)
 1a4:	8c570040 	lw	s7,64(v0)

    for (i = 0; i < 5; i++) {
        for (j = 0; j < 5; j++) {
            sum = 0;
            for (k = 0; k < 5 ; k++) {
                sum = sum + a[i][k] * b[k][j];
 1a8:	0099c821 	addu	t9,a0,t9
 1ac:	00873821 	addu	a3,a0,a3
        }
    }
    
    for (x = 0; x < 5; x++){
        for (y = 0; y < 5; y++) {
            main_result += (output[x][y] != c[x][y]);
 1b0:	8c5e0044 	lw	s8,68(v0)

    for (i = 0; i < 5; i++) {
        for (j = 0; j < 5; j++) {
            sum = 0;
            for (k = 0; k < 5 ; k++) {
                sum = sum + a[i][k] * b[k][j];
 1b4:	018a6021 	addu	t4,t4,t2
 1b8:	02469021 	addu	s2,s2,a2
 1bc:	00b08021 	addu	s0,a1,s0
 1c0:	03063021 	addu	a2,t8,a2
 1c4:	01a52821 	addu	a1,t5,a1
 1c8:	030f7821 	addu	t7,t8,t7
 1cc:	01cd6821 	addu	t5,t6,t5
        }
    }
    
    for (x = 0; x < 5; x++){
        for (y = 0; y < 5; y++) {
            main_result += (output[x][y] != c[x][y]);
 1d0:	8c580008 	lw	t8,8(v0)
 1d4:	02d9c826 	xor	t9,s6,t9
 1d8:	8c560050 	lw	s6,80(v0)

    for (i = 0; i < 5; i++) {
        for (j = 0; j < 5; j++) {
            sum = 0;
            for (k = 0; k < 5 ; k++) {
                sum = sum + a[i][k] * b[k][j];
 1dc:	0287a021 	addu	s4,s4,a3
        }
    }
    
    for (x = 0; x < 5; x++){
        for (y = 0; y < 5; y++) {
            main_result += (output[x][y] != c[x][y]);
 1e0:	02729026 	xor	s2,s3,s2
 1e4:	022c8826 	xor	s1,s1,t4
 1e8:	8c53000c 	lw	s3,12(v0)
 1ec:	02f08026 	xor	s0,s7,s0

    for (i = 0; i < 5; i++) {
        for (j = 0; j < 5; j++) {
            sum = 0;
            for (k = 0; k < 5 ; k++) {
                sum = sum + a[i][k] * b[k][j];
 1f0:	01a96821 	addu	t5,t5,t1
        }
    }
    
    for (x = 0; x < 5; x++){
        for (y = 0; y < 5; y++) {
            main_result += (output[x][y] != c[x][y]);
 1f4:	8c570048 	lw	s7,72(v0)

    for (i = 0; i < 5; i++) {
        for (j = 0; j < 5; j++) {
            sum = 0;
            for (k = 0; k < 5 ; k++) {
                sum = sum + a[i][k] * b[k][j];
 1f8:	00644821 	addu	t1,v1,a0
 1fc:	00684021 	addu	t0,v1,t0
        }
    }
    
    for (x = 0; x < 5; x++){
        for (y = 0; y < 5; y++) {
            main_result += (output[x][y] != c[x][y]);
 200:	8c430058 	lw	v1,88(v0)
 204:	0012902b 	sltu	s2,zero,s2
 208:	030c6026 	xor	t4,t8,t4
 20c:	8c4e0010 	lw	t6,16(v0)
 210:	03cb5826 	xor	t3,s8,t3
 214:	8c58004c 	lw	t8,76(v0)
 218:	02d4f026 	xor	s8,s6,s4
 21c:	0011882b 	sltu	s1,zero,s1
 220:	8c56005c 	lw	s6,92(v0)
 224:	0010802b 	sltu	s0,zero,s0
 228:	02518821 	addu	s1,s2,s1
 22c:	02b08021 	addu	s0,s5,s0
 230:	02663026 	xor	a2,s3,a2
 234:	02e5b826 	xor	s7,s7,a1
 238:	001ef02b 	sltu	s8,zero,s8
 23c:	0074a026 	xor	s4,v1,s4

    for (i = 0; i < 5; i++) {
        for (j = 0; j < 5; j++) {
            sum = 0;
            for (k = 0; k < 5 ; k++) {
                sum = sum + a[i][k] * b[k][j];
 240:	01ea7821 	addu	t7,t7,t2
        }
    }
    
    for (x = 0; x < 5; x++){
        for (y = 0; y < 5; y++) {
            main_result += (output[x][y] != c[x][y]);
 244:	8c430060 	lw	v1,96(v0)
 248:	000c602b 	sltu	t4,zero,t4
 24c:	000b582b 	sltu	t3,zero,t3
 250:	0019c82b 	sltu	t9,zero,t9
 254:	022c6021 	addu	t4,s1,t4
 258:	020b1021 	addu	v0,s0,t3
 25c:	0017b82b 	sltu	s7,zero,s7
 260:	033e2021 	addu	a0,t9,s8
 264:	0014a02b 	sltu	s4,zero,s4
 268:	0006282b 	sltu	a1,zero,a2
 26c:	01cf7026 	xor	t6,t6,t7
 270:	030dc026 	xor	t8,t8,t5
 274:	02c9b026 	xor	s6,s6,t1

    for (i = 0; i < 5; i++) {
        for (j = 0; j < 5; j++) {
            sum = 0;
            for (k = 0; k < 5 ; k++) {
                sum = sum + a[i][k] * b[k][j];
 278:	01073821 	addu	a3,t0,a3
        }
    }
    
    for (x = 0; x < 5; x++){
        for (y = 0; y < 5; y++) {
            main_result += (output[x][y] != c[x][y]);
 27c:	00571021 	addu	v0,v0,s7
 280:	00942021 	addu	a0,a0,s4
 284:	0016b02b 	sltu	s6,zero,s6
 288:	01852821 	addu	a1,t4,a1
 28c:	000e702b 	sltu	t6,zero,t6
 290:	0018c02b 	sltu	t8,zero,t8
 294:	00671826 	xor	v1,v1,a3
 298:	00962021 	addu	a0,a0,s6
 29c:	00ae2821 	addu	a1,a1,t6
 2a0:	00581021 	addu	v0,v0,t8
 2a4:	0003182b 	sltu	v1,zero,v1
 2a8:	00a21021 	addu	v0,a1,v0
 2ac:	00831821 	addu	v1,a0,v1
    }

    //printf("%d\n", main_result);

    return main_result;
}
 2b0:	00621021 	addu	v0,v1,v0
 2b4:	8fbe008c 	lw	s8,140(sp)
 2b8:	8fb70088 	lw	s7,136(sp)
 2bc:	8fb60084 	lw	s6,132(sp)
 2c0:	8fb50080 	lw	s5,128(sp)
 2c4:	8fb4007c 	lw	s4,124(sp)
 2c8:	8fb30078 	lw	s3,120(sp)
 2cc:	8fb20074 	lw	s2,116(sp)
 2d0:	8fb10070 	lw	s1,112(sp)
 2d4:	8fb0006c 	lw	s0,108(sp)
 2d8:	03e00008 	jr	ra
 2dc:	27bd0090 	addiu	sp,sp,144
